; Function Attrs: mustprogress nofree norecurse nosync nounwind willreturn memory(argmem: read) uwtable
define noundef signext i8 @ufmt_isNumeric_75(ptr nocapture noundef readonly %fmt) local_unnamed_addr #9 {
entry:
  %fType.i = getelementptr inbounds i8, ptr %fmt, i64 40
  %0 = load i32, ptr %fType.i, align 8
  %1 = icmp ult i32 %0, 6
  %switch.cast = zext i32 %0 to i48
  %switch.shiftamt = shl nuw nsw i48 %switch.cast, 3
  %switch.downshift = lshr i48 1099511693568, %switch.shiftamt
  %switch.masked = trunc i48 %switch.downshift to i8
  %retval.0.i = select i1 %1, i8 %switch.masked, i8 0
  ret i8 %retval.0.i
}